; Function Attrs: mustprogress uwtable
define internal fastcc void @_ZN5boost15program_options12_GLOBAL__N_113convert_valueERKNSt7__cxx1112basic_stringIwSt11char_traitsIwESaIwEEE(ptr dead_on_unwind noalias nonnull writable align 8 %0, ptr noundef nonnull align 8 dereferenceable(32) %1) unnamed_addr #0 personality ptr @__gxx_personality_v0 {
  %3 = alloca %"class.std::allocator.4", align 1
  invoke void @_ZN5boost14to_local_8_bitERKNSt7__cxx1112basic_stringIwSt11char_traitsIwESaIwEEE(ptr dead_on_unwind nonnull writable sret(%"class.std::__cxx11::basic_string.3") align 8 %0, ptr noundef nonnull align 8 dereferenceable(32) %1)
          to label %15 unwind label %4

4:                                                ; preds = %2
  %5 = landingpad { ptr, i32 }
          catch ptr @_ZTISt9exception
  %6 = extractvalue { ptr, i32 } %5, 1
  %7 = tail call i32 @llvm.eh.typeid.for.p0(ptr nonnull @_ZTISt9exception) #28
  %8 = icmp eq i32 %6, %7
  br i1 %8, label %9, label %16

9:                                                ; preds = %4
  %10 = extractvalue { ptr, i32 } %5, 0
  %11 = tail call ptr @__cxa_begin_catch(ptr %10) #28
  call void @llvm.lifetime.start.p0(i64 1, ptr nonnull %3) #28
  invoke void @_ZNSt7__cxx1112basic_stringIcSt11char_traitsIcESaIcEEC2IS3_EEPKcRKS3_(ptr noundef nonnull align 8 dereferenceable(32) %0, ptr noundef nonnull @.str.44, ptr noundef nonnull align 1 dereferenceable(1) %3)
          to label %12 unwind label %13

12:                                               ; preds = %9
  call void @llvm.lifetime.end.p0(i64 1, ptr nonnull %3) #28
  call void @__cxa_end_catch()
  br label %15

13:                                               ; preds = %9
  %14 = landingpad { ptr, i32 }
          cleanup
  call void @llvm.lifetime.end.p0(i64 1, ptr nonnull %3) #28
  invoke void @__cxa_end_catch()
          to label %16 unwind label %17

15:                                               ; preds = %2, %12
  ret void

16:                                               ; preds = %13, %4
  %.merged = phi { ptr, i32 } [ %5, %4 ], [ %14, %13 ]
  resume { ptr, i32 } %.merged

17:                                               ; preds = %13
  %18 = landingpad { ptr, i32 }
          catch ptr null
  %19 = extractvalue { ptr, i32 } %18, 0
  call void @__clang_call_terminate(ptr %19) #33
  unreachable
}